; Function Attrs: nofree norecurse nosync nounwind memory(argmem: readwrite) uwtable
define hidden void @aom_v_predictor_16x8_c(ptr nocapture noundef writeonly %0, i64 noundef %1, ptr nocapture noundef readonly %2, ptr nocapture noundef readnone %3) local_unnamed_addr #0 {
  br label %5

5:                                                ; preds = %5, %4
  %.02.i = phi i32 [ 0, %4 ], [ %7, %5 ]
  %.071.i = phi ptr [ %0, %4 ], [ %6, %5 ]
  tail call void @llvm.memcpy.p0.p0.i64(ptr noundef nonnull align 1 dereferenceable(16) %.071.i, ptr noundef nonnull readonly align 1 dereferenceable(16) %2, i64 16, i1 false)
  %6 = getelementptr inbounds i8, ptr %.071.i, i64 %1
  %7 = add nuw nsw i32 %.02.i, 1
  %exitcond.not.i = icmp eq i32 %7, 8
  br i1 %exitcond.not.i, label %v_predictor.exit, label %5, !llvm.loop !11

v_predictor.exit:                                 ; preds = %5
  ret void
}